(dp1
S'node_deps'
p2
(dp3
S'a_)\x0f\x923\x1c\x99\x08\xbav\xed\xf8X\xa6\xe8'
p4
(lp5
ccopy_reg
_reconstructor
p6
(cwaflib.Node
Nod3
p7
c__builtin__
object
p8
NtRp9
(S'liba.h'
p10
g6
(g7
g8
NtRp11
(S'liba'
p12
g6
(g7
g8
NtRp13
(S'inc'
p14
g6
(g7
g8
NtRp15
(S'liba'
p16
g6
(g7
g8
NtRp17
(S'waf-c-example'
p18
g6
(g7
g8
NtRp19
(S'Git'
p20
g6
(g7
g8
NtRp21
(S'Desktop'
p22
g6
(g7
g8
NtRp23
(S'lafrasss'
p24
g6
(g7
g8
NtRp25
(S'Users'
p26
g6
(g7
g8
NtRp27
(S''
N(dp28
g26
g25
sNtb(dp29
g24
g23
sNtb(dp30
g22
g21
sNtb(dp31
g20
g19
sNtb(dp32
g18
g17
sNtb(dp33
S'wscript'
p34
g6
(g7
g8
NtRp35
(g34
g17
NNtbsS'app'
p36
g6
(g7
g8
NtRp37
(g36
g17
(dp38
S'wscript'
p39
g6
(g7
g8
NtRp40
(g39
g37
NNtbsS'src'
p41
g6
(g7
g8
NtRp42
(g41
g37
(dp43
S'app.c'
p44
g6
(g7
g8
NtRp45
(g44
g42
NS'\xeb\n\xcf.\xd3\xea\x05nP\x9f\xc28\x0f/\x07J'
p46
tbsNtbsNtbsg16
g15
sS'__build__'
p47
g6
(g7
g8
NtRp48
(g47
g17
(dp49
S'libb'
p50
g6
(g7
g8
NtRp51
(g50
g48
(dp52
S'src'
p53
g6
(g7
g8
NtRp54
(g53
g51
(dp55
S'libb.c.1.o'
p56
g6
(g7
g8
NtRp57
(g56
g54
NS'k\xddy\xf3k\x91\x8f\xfc54P\xe4K\xb1\xe6\xd8'
p58
tbsNtbsg14
g6
(g7
g8
NtRp59
(g14
g51
(dp60
NtbsS'liblibb.dylib'
p61
g6
(g7
g8
NtRp62
(g61
g51
NS'N\xdd"\x05\xa2\n(\xf6\x81\\\xf4LA\xb8c\xc6'
p63
tbsNtbsg36
g6
(g7
g8
NtRp64
(g36
g48
(dp65
g41
g6
(g7
g8
NtRp66
(g41
g64
(dp67
S'app.c.1.o'
p68
g6
(g7
g8
NtRp69
(g68
g66
NS'\xc0\x1fJ\xc8\xd9\x81!\x0b+\x10\xfe\xec\x85\x08\xc1\xe5'
p70
tbsNtbsS'app'
p71
g6
(g7
g8
NtRp72
(g71
g64
NS'\x9cG\xccb\x80Cx\xea>\x90\xbc<\xefH\xa8\xa7'
p73
tbsNtbsS'c4che'
p74
g6
(g7
g8
NtRp75
(g74
g48
(dp76
S'_cache.py'
p77
g6
(g7
g8
NtRp78
(g77
g75
NNtbsS'build.config.py'
p79
g6
(g7
g8
NtRp80
(g79
g75
NNtbsNtbsg16
g6
(g7
g8
NtRp81
(g16
g48
(dp82
S'src'
p83
g6
(g7
g8
NtRp84
(g83
g81
(dp85
S'liba.c.1.o'
p86
g6
(g7
g8
NtRp87
(g86
g84
NS'\xf7`\xcfp\xe0\xe7y\xaa\x0f\xa3b_\xfd)\xfe]'
p88
tbsNtbsS'libliba.dylib'
p89
g6
(g7
g8
NtRp90
(g89
g81
NS'\x88\xdecXZ\x12\xd9\xe8z\x0b\xf5\x0e\xf9q\x85H'
p91
tbsg14
g6
(g7
g8
NtRp92
(g14
g81
(dp93
NtbsNtbsNtbsg50
g6
(g7
g8
NtRp94
(g50
g17
(dp95
S'wscript'
p96
g6
(g7
g8
NtRp97
(g96
g94
NNtbsg14
g6
(g7
g8
NtRp98
(g14
g94
(dp99
S'libb'
p100
g6
(g7
g8
NtRp101
(g100
g98
(dp102
S'libb.h'
p103
g6
(g7
g8
NtRp104
(g103
g101
NS'\xdctN5%mG\xa2\xa3\x8f\xa7\xe92W\x0b\x15'
p105
tbsNtbsNtbsg53
g6
(g7
g8
NtRp106
(g53
g94
(dp107
S'libb.c'
p108
g6
(g7
g8
NtRp109
(g108
g106
NS'\xa4~n\xceeL\x8eb\xfc\x8b\x8f\x97\x87rB5'
p110
tbsNtbsNtbsNtb(dp111
S'wscript'
p112
g6
(g7
g8
NtRp113
(g112
g15
NNtbsg14
g13
sg83
g6
(g7
g8
NtRp114
(g83
g15
(dp115
S'liba.c'
p116
g6
(g7
g8
NtRp117
(g116
g114
NS'\xe1C.\xcb\x94\xa7e\xb3i\xf5\xe7\xaeHd@\x02'
p118
tbsNtbsNtb(dp119
g12
g11
sNtb(dp120
g10
g9
sNtbNS' \xcc=+\x84@\xad\x01z\xae\x92\xf5\x7f\r\xe3T'
p121
tbasS'OT\xa0t\xca\xf7\xbd\x0bZ<\xf4\x83\xc6\xf61%'
p122
(lp123
g9
ag104
asS'\xdb9 \x04Q\xb3p\xfa\xdb5\x08F\x9aR>\x8a'
p124
(lp125
g9
ag104
assS'raw_deps'
p126
(dp127
g4
(lp128
S'stdio.h'
p129
asg122
(lp130
S'stdio.h'
p131
asg124
(lp132
S'stdio.h'
p133
assS'root'
p134
g27
sS'task_sigs'
p135
(dp136
g122
g70
sg124
g58
sS"'5t4K\xfb\xd9\x1e\x8e\x92\x02\xbb\xd0'\x9b\xc6"
p137
g73
sg4
g88
s(g124
S'imp'
p138
tp139
S'k\xddy\xf3k\x91\x8f\xfc54P\xe4K\xb1\xe6\xd8'
p140
sS'\\\x83,\x81\xc8\xea\xf8\x02\xf0\xbe\xee1\xe3\x1f.-'
p141
g91
s(g4
g138
tp142
S'\xf7`\xcfp\xe0\xe7y\xaa\x0f\xa3b_\xfd)\xfe]'
p143
s(g122
g138
tp144
S'\xc0\x1fJ\xc8\xd9\x81!\x0b+\x10\xfe\xec\x85\x08\xc1\xe5'
p145
sS'\x1f\x89\xc2\xa0`kN-\x01\xdaf\xb1C\x0c\xb3\x17'
p146
g63
ss.